; Function Attrs: null_pointer_is_valid sspstrong uwtable
define void @stnode_clear(ptr noundef captures(none) initializes((40, 58)) %0) local_unnamed_addr #0 {
  %2 = load ptr, ptr %0, align 8
  %.not = icmp eq ptr %2, null
  br i1 %.not, label %10, label %3

3:                                                ; preds = %1
  %4 = getelementptr inbounds nuw i8, ptr %2, i64 16
  %5 = load ptr, ptr %4, align 8
  %.not18 = icmp eq ptr %5, null
  br i1 %.not18, label %10, label %6

6:                                                ; preds = %3
  %7 = getelementptr inbounds nuw i8, ptr %0, i64 8
  %8 = load ptr, ptr %7, align 8
  %.not19 = icmp eq ptr %8, null
  br i1 %.not19, label %10, label %9

9:                                                ; preds = %6
  tail call void %5(ptr noundef nonnull %8)
  br label %10

10:                                               ; preds = %1, %3, %6, %9
  %11 = getelementptr inbounds nuw i8, ptr %0, i64 24
  tail call void @llvm.memset.p0.i64(ptr noundef align 8 dereferenceable(16) %0, i8 0, i64 16, i1 false)
  %12 = load ptr, ptr %11, align 8
  tail call void @g_free(ptr noundef %12)
  store ptr null, ptr %11, align 8
  %13 = getelementptr inbounds nuw i8, ptr %0, i64 32
  %14 = load ptr, ptr %13, align 8
  tail call void @g_free(ptr noundef %14)
  store ptr null, ptr %13, align 8
  %15 = getelementptr inbounds nuw i8, ptr %0, i64 16
  %16 = load ptr, ptr %15, align 8
  tail call void @g_free(ptr noundef %16)
  store ptr null, ptr %15, align 8
  %17 = getelementptr inbounds nuw i8, ptr %0, i64 40
  store i64 -1, ptr %17, align 8
  %18 = getelementptr inbounds nuw i8, ptr %0, i64 48
  store i64 0, ptr %18, align 8
  %19 = getelementptr inbounds nuw i8, ptr %0, i64 56
  store i16 0, ptr %19, align 8
  ret void
}